; Function Attrs: mustprogress uwtable
define hidden void @_ZN21pb2bv_model_converter7displayERSo(ptr noundef nonnull readonly align 8 captures(none) dereferenceable(48) %0, ptr noundef nonnull align 8 dereferenceable(8) %1) unnamed_addr #4 align 2 {
  %3 = tail call noundef nonnull align 8 dereferenceable(8) ptr @_ZSt16__ostream_insertIcSt11char_traitsIcEERSt13basic_ostreamIT_T0_ES6_PKS3_l(ptr noundef nonnull align 8 dereferenceable(8) %1, ptr noundef nonnull @.str, i64 noundef 22)
  %4 = getelementptr inbounds nuw i8, ptr %0, i64 40
  %5 = load ptr, ptr %4, align 8, !tbaa !18
  %6 = icmp eq ptr %5, null
  br i1 %6, label %._crit_edge, label %_ZN6vectorISt4pairIP9func_declS2_ELb0EjE3endEv.exit

_ZN6vectorISt4pairIP9func_declS2_ELb0EjE3endEv.exit: ; preds = %2
  %7 = getelementptr inbounds i8, ptr %5, i64 -4
  %8 = load i32, ptr %7, align 4, !tbaa !39
  %9 = zext i32 %8 to i64
  %10 = getelementptr inbounds nuw %"struct.std::pair", ptr %5, i64 %9
  %.not21 = icmp eq i32 %8, 0
  br i1 %.not21, label %._crit_edge, label %.lr.ph

._crit_edge:                                      ; preds = %_ZlsRSo6symbol.exit20, %2, %_ZN6vectorISt4pairIP9func_declS2_ELb0EjE3endEv.exit
  %11 = tail call noundef nonnull align 8 dereferenceable(8) ptr @_ZSt16__ostream_insertIcSt11char_traitsIcEERSt13basic_ostreamIT_T0_ES6_PKS3_l(ptr noundef nonnull align 8 dereferenceable(8) %1, ptr noundef nonnull @.str.5, i64 noundef 2)
  ret void

.lr.ph:                                           ; preds = %_ZN6vectorISt4pairIP9func_declS2_ELb0EjE3endEv.exit, %_ZlsRSo6symbol.exit20
  %.022 = phi ptr [ %50, %_ZlsRSo6symbol.exit20 ], [ %5, %_ZN6vectorISt4pairIP9func_declS2_ELb0EjE3endEv.exit ]
  %12 = tail call noundef nonnull align 8 dereferenceable(8) ptr @_ZSt16__ostream_insertIcSt11char_traitsIcEERSt13basic_ostreamIT_T0_ES6_PKS3_l(ptr noundef nonnull align 8 dereferenceable(8) %1, ptr noundef nonnull @.str.1, i64 noundef 4)
  %13 = load ptr, ptr %.022, align 8, !tbaa !53
  %14 = getelementptr inbounds nuw i8, ptr %13, i64 16
  %.sroa.01.0.copyload = load ptr, ptr %14, align 8, !tbaa !157
  %15 = ptrtoint ptr %.sroa.01.0.copyload to i64
  %16 = and i64 %15, 7
  %17 = icmp eq i64 %16, 0
  br i1 %17, label %18, label %23

18:                                               ; preds = %.lr.ph
  %.not.i = icmp eq ptr %.sroa.01.0.copyload, null
  br i1 %.not.i, label %21, label %_ZStlsISt11char_traitsIcEERSt13basic_ostreamIcT_ES5_PKc.exit.i

_ZStlsISt11char_traitsIcEERSt13basic_ostreamIcT_ES5_PKc.exit.i: ; preds = %18
  %19 = tail call noundef i64 @strlen(ptr noundef nonnull dereferenceable(1) %.sroa.01.0.copyload) #18
  %20 = tail call noundef nonnull align 8 dereferenceable(8) ptr @_ZSt16__ostream_insertIcSt11char_traitsIcEERSt13basic_ostreamIT_T0_ES6_PKS3_l(ptr noundef nonnull align 8 dereferenceable(8) %1, ptr noundef nonnull %.sroa.01.0.copyload, i64 noundef %19)
  br label %_ZlsRSo6symbol.exit

21:                                               ; preds = %18
  %22 = tail call noundef nonnull align 8 dereferenceable(8) ptr @_ZSt16__ostream_insertIcSt11char_traitsIcEERSt13basic_ostreamIT_T0_ES6_PKS3_l(ptr noundef nonnull align 8 dereferenceable(8) %1, ptr noundef nonnull @.str.6, i64 noundef 4)
  br label %_ZlsRSo6symbol.exit

23:                                               ; preds = %.lr.ph
  %24 = tail call noundef nonnull align 8 dereferenceable(8) ptr @_ZSt16__ostream_insertIcSt11char_traitsIcEERSt13basic_ostreamIT_T0_ES6_PKS3_l(ptr noundef nonnull align 8 dereferenceable(8) %1, ptr noundef nonnull @.str.7, i64 noundef 2)
  %25 = lshr i64 %15, 3
  %26 = trunc i64 %25 to i32
  %27 = tail call noundef nonnull align 8 dereferenceable(8) ptr @_ZNSolsEi(ptr noundef nonnull align 8 dereferenceable(8) %1, i32 noundef %26)
  br label %_ZlsRSo6symbol.exit

_ZlsRSo6symbol.exit:                              ; preds = %_ZStlsISt11char_traitsIcEERSt13basic_ostreamIcT_ES5_PKc.exit.i, %21, %23
  %28 = tail call noundef nonnull align 8 dereferenceable(8) ptr @_ZSt16__ostream_insertIcSt11char_traitsIcEERSt13basic_ostreamIT_T0_ES6_PKS3_l(ptr noundef nonnull align 8 dereferenceable(8) %1, ptr noundef nonnull @.str.2, i64 noundef 1)
  %29 = getelementptr inbounds nuw i8, ptr %.022, i64 8
  %30 = load ptr, ptr %29, align 8, !tbaa !55
  %31 = icmp eq ptr %30, null
  br i1 %31, label %32, label %34

32:                                               ; preds = %_ZlsRSo6symbol.exit
  %33 = tail call noundef nonnull align 8 dereferenceable(8) ptr @_ZSt16__ostream_insertIcSt11char_traitsIcEERSt13basic_ostreamIT_T0_ES6_PKS3_l(ptr noundef nonnull align 8 dereferenceable(8) %1, ptr noundef nonnull @.str.3, i64 noundef 1)
  br label %_ZlsRSo6symbol.exit20

34:                                               ; preds = %_ZlsRSo6symbol.exit
  %35 = getelementptr inbounds nuw i8, ptr %30, i64 16
  %.sroa.0.0.copyload = load ptr, ptr %35, align 8, !tbaa !157
  %36 = ptrtoint ptr %.sroa.0.0.copyload to i64
  %37 = and i64 %36, 7
  %38 = icmp eq i64 %37, 0
  br i1 %38, label %39, label %44

39:                                               ; preds = %34
  %.not.i18 = icmp eq ptr %.sroa.0.0.copyload, null
  br i1 %.not.i18, label %42, label %_ZStlsISt11char_traitsIcEERSt13basic_ostreamIcT_ES5_PKc.exit.i19

_ZStlsISt11char_traitsIcEERSt13basic_ostreamIcT_ES5_PKc.exit.i19: ; preds = %39
  %40 = tail call noundef i64 @strlen(ptr noundef nonnull dereferenceable(1) %.sroa.0.0.copyload) #18
  %41 = tail call noundef nonnull align 8 dereferenceable(8) ptr @_ZSt16__ostream_insertIcSt11char_traitsIcEERSt13basic_ostreamIT_T0_ES6_PKS3_l(ptr noundef nonnull align 8 dereferenceable(8) %1, ptr noundef nonnull %.sroa.0.0.copyload, i64 noundef %40)
  br label %_ZlsRSo6symbol.exit20

42:                                               ; preds = %39
  %43 = tail call noundef nonnull align 8 dereferenceable(8) ptr @_ZSt16__ostream_insertIcSt11char_traitsIcEERSt13basic_ostreamIT_T0_ES6_PKS3_l(ptr noundef nonnull align 8 dereferenceable(8) %1, ptr noundef nonnull @.str.6, i64 noundef 4)
  br label %_ZlsRSo6symbol.exit20

44:                                               ; preds = %34
  %45 = tail call noundef nonnull align 8 dereferenceable(8) ptr @_ZSt16__ostream_insertIcSt11char_traitsIcEERSt13basic_ostreamIT_T0_ES6_PKS3_l(ptr noundef nonnull align 8 dereferenceable(8) %1, ptr noundef nonnull @.str.7, i64 noundef 2)
  %46 = lshr i64 %36, 3
  %47 = trunc i64 %46 to i32
  %48 = tail call noundef nonnull align 8 dereferenceable(8) ptr @_ZNSolsEi(ptr noundef nonnull align 8 dereferenceable(8) %1, i32 noundef %47)
  br label %_ZlsRSo6symbol.exit20

_ZlsRSo6symbol.exit20:                            ; preds = %44, %42, %_ZStlsISt11char_traitsIcEERSt13basic_ostreamIcT_ES5_PKc.exit.i19, %32
  %49 = tail call noundef nonnull align 8 dereferenceable(8) ptr @_ZSt16__ostream_insertIcSt11char_traitsIcEERSt13basic_ostreamIT_T0_ES6_PKS3_l(ptr noundef nonnull align 8 dereferenceable(8) %1, ptr noundef nonnull @.str.4, i64 noundef 1)
  %50 = getelementptr inbounds nuw i8, ptr %.022, i64 16
  %.not = icmp eq ptr %50, %10
  br i1 %.not, label %._crit_edge, label %.lr.ph
}